	.file	"towers-lib.c"
	.section	.rodata
.LC0:
	.string	"call_towers:n = %d\n"
	.text
	.globl	call_towers
	.type	call_towers, @function
call_towers:
.LFB0:
	.cfi_startproc
	pushl	%ebp
	.cfi_def_cfa_offset 8
	.cfi_offset 5, -8
	movl	%esp, %ebp
	.cfi_def_cfa_register 5
	subl	$24, %esp
	movl	8(%ebp), %eax
	movl	%eax, 4(%esp)
	movl	$.LC0, (%esp)
	call	printf
	cmpl	$1, 8(%ebp)
	jle	.L1
	movl	8(%ebp), %eax
	leal	-1(%eax), %edx
	movl	20(%ebp), %eax
	movl	%eax, 12(%esp)
	movl	16(%ebp), %eax
	movl	%eax, 8(%esp)
	movl	12(%ebp), %eax
	movl	%eax, 4(%esp)
	movl	%edx, (%esp)
	call	towers
.L1:
	leave
	.cfi_restore 5
	.cfi_def_cfa 4, 4
	ret
	.cfi_endproc
.LFE0:
	.size	call_towers, .-call_towers
	.section	.rodata
.LC1:
	.string	"move a peg from %d to %d\n"
	.text
	.globl	print_move
	.type	print_move, @function
print_move:
.LFB1:
	.cfi_startproc
	pushl	%ebp
	.cfi_def_cfa_offset 8
	.cfi_offset 5, -8
	movl	%esp, %ebp
	.cfi_def_cfa_register 5
	subl	$24, %esp
	movl	12(%ebp), %eax
	movl	%eax, 8(%esp)
	movl	8(%ebp), %eax
	movl	%eax, 4(%esp)
	movl	$.LC1, (%esp)
	call	printf
	leave
	.cfi_restore 5
	.cfi_def_cfa 4, 4
	ret
	.cfi_endproc
.LFE1:
	.size	print_move, .-print_move
	.section	.rodata
.LC2:
	.string	"value = %d\n"
	.text
	.globl	print
	.type	print, @function
print:
.LFB2:
	.cfi_startproc
	pushl	%ebp
	.cfi_def_cfa_offset 8
	.cfi_offset 5, -8
	movl	%esp, %ebp
	.cfi_def_cfa_register 5
	subl	$24, %esp
	movl	8(%ebp), %eax
	movl	%eax, 4(%esp)
	movl	$.LC2, (%esp)
	call	printf
	leave
	.cfi_restore 5
	.cfi_def_cfa 4, 4
	ret
	.cfi_endproc
.LFE2:
	.size	print, .-print
	.ident	"GCC: (GNU) 4.8.5 20150623 (Red Hat 4.8.5-36)"
	.section	.note.GNU-stack,"",@progbits
